target datalayout = "e-m:e-p270:32:32-p271:32:32-p272:64:64-i64:64-i128:128-f80:128-n8:16:32:64-S128"
target triple = "x86_64-pc-linux-gnu"

; Function Attrs: nounwind uwtable
define internal float @stbtt__oversample_shift(i32 noundef %0) #0 {
  %2 = alloca float, align 4
  %3 = alloca i32, align 4
  store i32 %0, ptr %3, align 4, !tbaa !13
  %4 = load i32, ptr %3, align 4, !tbaa !13
  %5 = icmp ne i32 %4, 0
  br i1 %5, label %7, label %6

6:                                                ; preds = %1
  store float 0.000000e+00, ptr %2, align 4
  br label %16

7:                                                ; preds = %1
  %8 = load i32, ptr %3, align 4, !tbaa !13
  %9 = sub nsw i32 %8, 1
  %10 = sub nsw i32 0, %9
  %11 = sitofp i32 %10 to float
  %12 = load i32, ptr %3, align 4, !tbaa !13
  %13 = sitofp i32 %12 to float
  %14 = fmul float 2.000000e+00, %13
  %15 = fdiv float %11, %14
  store float %15, ptr %2, align 4
  br label %16

16:                                               ; preds = %7, %6
  %17 = load float, ptr %2, align 4
  ret float %17
}

; Function Attrs: nounwind uwtable
define void @stbtt_MakeGlyphBitmapSubpixelPrefilter(ptr noundef %0, ptr noundef %1, i32 noundef %2, i32 noundef %3, i32 noundef %4, float noundef %5, float noundef %6, float noundef %7, float noundef %8, i32 noundef %9, i32 noundef %10, ptr noundef %11, ptr noundef %12, i32 noundef %13) #0 {
  %15 = alloca ptr, align 8
  %16 = alloca ptr, align 8
  %17 = alloca i32, align 4
  %18 = alloca i32, align 4
  %19 = alloca i32, align 4
  %20 = alloca float, align 4
  %21 = alloca float, align 4
  %22 = alloca float, align 4
  %23 = alloca float, align 4
  %24 = alloca i32, align 4
  %25 = alloca i32, align 4
  %26 = alloca ptr, align 8
  %27 = alloca ptr, align 8
  %28 = alloca i32, align 4
  store ptr %0, ptr %15, align 8, !tbaa !476
  store ptr %1, ptr %16, align 8, !tbaa !26
  store i32 %2, ptr %17, align 4, !tbaa !13
  store i32 %3, ptr %18, align 4, !tbaa !13
  store i32 %4, ptr %19, align 4, !tbaa !13
  store float %5, ptr %20, align 4, !tbaa !4
  store float %6, ptr %21, align 4, !tbaa !4
  store float %7, ptr %22, align 4, !tbaa !4
  store float %8, ptr %23, align 4, !tbaa !4
  store i32 %9, ptr %24, align 4, !tbaa !13
  store i32 %10, ptr %25, align 4, !tbaa !13
  store ptr %11, ptr %26, align 8, !tbaa !18
  store ptr %12, ptr %27, align 8, !tbaa !18
  store i32 %13, ptr %28, align 4, !tbaa !13
  %29 = load ptr, ptr %15, align 8, !tbaa !476
  %30 = load ptr, ptr %16, align 8, !tbaa !26
  %31 = load i32, ptr %17, align 4, !tbaa !13
  %32 = load i32, ptr %24, align 4, !tbaa !13
  %33 = sub nsw i32 %32, 1
  %34 = sub nsw i32 %31, %33
  %35 = load i32, ptr %18, align 4, !tbaa !13
  %36 = load i32, ptr %25, align 4, !tbaa !13
  %37 = sub nsw i32 %36, 1
  %38 = sub nsw i32 %35, %37
  %39 = load i32, ptr %19, align 4, !tbaa !13
  %40 = load float, ptr %20, align 4, !tbaa !4
  %41 = load float, ptr %21, align 4, !tbaa !4
  %42 = load float, ptr %22, align 4, !tbaa !4
  %43 = load float, ptr %23, align 4, !tbaa !4
  %44 = load i32, ptr %28, align 4, !tbaa !13
  call void @stbtt_MakeGlyphBitmapSubpixel(ptr noundef %29, ptr noundef %30, i32 noundef %34, i32 noundef %38, i32 noundef %39, float noundef %40, float noundef %41, float noundef %42, float noundef %43, i32 noundef %44)
  %45 = load i32, ptr %24, align 4, !tbaa !13
  %46 = icmp sgt i32 %45, 1
  br i1 %46, label %47, label %53

47:                                               ; preds = %14
  %48 = load ptr, ptr %16, align 8, !tbaa !26
  %49 = load i32, ptr %17, align 4, !tbaa !13
  %50 = load i32, ptr %18, align 4, !tbaa !13
  %51 = load i32, ptr %19, align 4, !tbaa !13
  %52 = load i32, ptr %24, align 4, !tbaa !13
  call void @stbtt__h_prefilter(ptr noundef %48, i32 noundef %49, i32 noundef %50, i32 noundef %51, i32 noundef %52)
  br label %53

53:                                               ; preds = %47, %14
  %54 = load i32, ptr %25, align 4, !tbaa !13
  %55 = icmp sgt i32 %54, 1
  br i1 %55, label %56, label %62

56:                                               ; preds = %53
  %57 = load ptr, ptr %16, align 8, !tbaa !26
  %58 = load i32, ptr %17, align 4, !tbaa !13
  %59 = load i32, ptr %18, align 4, !tbaa !13
  %60 = load i32, ptr %19, align 4, !tbaa !13
  %61 = load i32, ptr %25, align 4, !tbaa !13
  call void @stbtt__v_prefilter(ptr noundef %57, i32 noundef %58, i32 noundef %59, i32 noundef %60, i32 noundef %61)
  br label %62

62:                                               ; preds = %56, %53
  %63 = load i32, ptr %24, align 4, !tbaa !13
  %64 = call float @stbtt__oversample_shift(i32 noundef %63)
  %65 = load ptr, ptr %26, align 8, !tbaa !18
  store float %64, ptr %65, align 4, !tbaa !4
  %66 = load i32, ptr %25, align 4, !tbaa !13
  %67 = call float @stbtt__oversample_shift(i32 noundef %66)
  %68 = load ptr, ptr %27, align 8, !tbaa !18
  store float %67, ptr %68, align 4, !tbaa !4
  ret void
}